target datalayout = "e-m:e-p270:32:32-p271:32:32-p272:64:64-i64:64-i128:128-f80:128-n8:16:32:64-S128"
target triple = "x86_64-pc-linux-gnu"

%"struct.icu_77::UInitOnce" = type { %"struct.std::atomic", i32 }
%"struct.std::atomic" = type { %"struct.std::__atomic_base" }
%"struct.std::__atomic_base" = type { i32 }

@_ZN12_GLOBAL__N_116gEmptyUnicodeSetE = internal global [200 x i8] zeroinitializer, align 8
@_ZN12_GLOBAL__N_127gNumberParseUniSetsInitOnceE = internal global { { i32 }, i32 } zeroinitializer, align 4
@_ZN12_GLOBAL__N_127gEmptyUnicodeSetInitializedE = internal global i8 0, align 1
@_ZN12_GLOBAL__N_112gUnicodeSetsE = internal global [24 x ptr] zeroinitializer, align 16

; Function Attrs: mustprogress nounwind uwtable
define linkonce_odr noundef i32 @_ZStanSt12memory_orderSt23__memory_order_modifier(i32 noundef %0, i32 noundef %1) #7 comdat {
  %3 = alloca i32, align 4
  %4 = alloca i32, align 4
  store i32 %0, ptr %3, align 4, !tbaa !30
  store i32 %1, ptr %4, align 4, !tbaa !33
  %5 = load i32, ptr %3, align 4, !tbaa !30
  %6 = load i32, ptr %4, align 4, !tbaa !33
  %7 = and i32 %5, %6
  ret i32 %7
}

; Function Attrs: alwaysinline mustprogress nounwind uwtable
define linkonce_odr void @_ZNSt13__atomic_baseIiE5storeEiSt12memory_order(ptr noundef nonnull align 4 dereferenceable(4) %0, i32 noundef %1, i32 noundef %2) #6 comdat align 2 {
  %4 = alloca ptr, align 8
  %5 = alloca i32, align 4
  %6 = alloca i32, align 4
  %7 = alloca i32, align 4
  %8 = alloca i32, align 4
  store ptr %0, ptr %4, align 8, !tbaa !28
  store i32 %1, ptr %5, align 4, !tbaa !32
  store i32 %2, ptr %6, align 4, !tbaa !30
  %9 = load ptr, ptr %4, align 8
  call void @llvm.lifetime.start.p0(i64 4, ptr %7) #11
  %10 = load i32, ptr %6, align 4, !tbaa !30
  %11 = call noundef i32 @_ZStanSt12memory_orderSt23__memory_order_modifier(i32 noundef %10, i32 noundef 65535)
  store i32 %11, ptr %7, align 4, !tbaa !30
  br label %12

12:                                               ; preds = %3
  br label %13

13:                                               ; preds = %12
  br label %14

14:                                               ; preds = %13
  br label %15

15:                                               ; preds = %14
  br label %16

16:                                               ; preds = %15
  br label %17

17:                                               ; preds = %16
  br label %18

18:                                               ; preds = %17
  br label %19

19:                                               ; preds = %18
  br label %20

20:                                               ; preds = %19
  %21 = getelementptr inbounds nuw %"struct.std::__atomic_base", ptr %9, i32 0, i32 0
  %22 = load i32, ptr %6, align 4, !tbaa !30
  %23 = load i32, ptr %5, align 4, !tbaa !32
  store i32 %23, ptr %8, align 4, !tbaa !32
  switch i32 %22, label %24 [
    i32 3, label %26
    i32 5, label %28
  ]

24:                                               ; preds = %20
  %25 = load i32, ptr %8, align 4
  store atomic i32 %25, ptr %21 monotonic, align 4
  br label %30

26:                                               ; preds = %20
  %27 = load i32, ptr %8, align 4
  store atomic i32 %27, ptr %21 release, align 4
  br label %30

28:                                               ; preds = %20
  %29 = load i32, ptr %8, align 4
  store atomic i32 %29, ptr %21 seq_cst, align 4
  br label %30

30:                                               ; preds = %28, %26, %24
  call void @llvm.lifetime.end.p0(i64 4, ptr %7) #11
  ret void
}

; Function Attrs: mustprogress nounwind uwtable
define linkonce_odr noundef i32 @_ZNSt13__atomic_baseIiEaSEi(ptr noundef nonnull align 4 dereferenceable(4) %0, i32 noundef %1) #7 comdat align 2 {
  %3 = alloca ptr, align 8
  %4 = alloca i32, align 4
  store ptr %0, ptr %3, align 8, !tbaa !28
  store i32 %1, ptr %4, align 4, !tbaa !32
  %5 = load ptr, ptr %3, align 8
  %6 = load i32, ptr %4, align 4, !tbaa !32
  call void @_ZNSt13__atomic_baseIiE5storeEiSt12memory_order(ptr noundef nonnull align 4 dereferenceable(4) %5, i32 noundef %6, i32 noundef 5) #11
  %7 = load i32, ptr %4, align 4, !tbaa !32
  ret i32 %7
}

; Function Attrs: mustprogress nounwind uwtable
define linkonce_odr void @_ZN6icu_779UInitOnce5resetEv(ptr noundef nonnull align 4 dereferenceable(8) %0) #7 comdat align 2 {
  %2 = alloca ptr, align 8
  store ptr %0, ptr %2, align 8, !tbaa !9
  %3 = load ptr, ptr %2, align 8
  %4 = getelementptr inbounds nuw %"struct.icu_77::UInitOnce", ptr %3, i32 0, i32 0
  %5 = call noundef i32 @_ZNSt13__atomic_baseIiEaSEi(ptr noundef nonnull align 4 dereferenceable(4) %4, i32 noundef 0) #11
  ret void
}

; Function Attrs: mustprogress uwtable
define internal noundef signext i8 @_ZN12_GLOBAL__N_125cleanupNumberParseUniSetsEv() #0 {
  %1 = alloca i32, align 4
  %2 = load i8, ptr @_ZN12_GLOBAL__N_127gEmptyUnicodeSetInitializedE, align 1, !tbaa !18
  %3 = icmp ne i8 %2, 0
  br i1 %3, label %4, label %5

4:                                                ; preds = %0
  call void @_ZN6icu_7710UnicodeSetD1Ev(ptr noundef nonnull align 8 dereferenceable(200) @_ZN12_GLOBAL__N_116gEmptyUnicodeSetE) #11
  store i8 0, ptr @_ZN12_GLOBAL__N_127gEmptyUnicodeSetInitializedE, align 1, !tbaa !18
  br label %5

5:                                                ; preds = %4, %0
  call void @llvm.lifetime.start.p0(i64 4, ptr %1) #11
  store i32 0, ptr %1, align 4, !tbaa !32
  br label %6

6:                                                ; preds = %21, %5
  %7 = load i32, ptr %1, align 4, !tbaa !32
  %8 = icmp slt i32 %7, 24
  br i1 %8, label %10, label %9

9:                                                ; preds = %6
  call void @llvm.lifetime.end.p0(i64 4, ptr %1) #11
  br label %24

10:                                               ; preds = %6
  %11 = load i32, ptr %1, align 4, !tbaa !32
  %12 = sext i32 %11 to i64
  %13 = getelementptr inbounds [24 x ptr], ptr @_ZN12_GLOBAL__N_112gUnicodeSetsE, i64 0, i64 %12
  %14 = load ptr, ptr %13, align 8, !tbaa !19
  %15 = icmp eq ptr %14, null
  br i1 %15, label %17, label %16

16:                                               ; preds = %10
  call void @_ZN6icu_7710UnicodeSetD1Ev(ptr noundef nonnull align 8 dereferenceable(200) %14) #11
  call void @_ZN6icu_777UMemorydlEPv(ptr noundef %14) #11
  br label %17

17:                                               ; preds = %16, %10
  %18 = load i32, ptr %1, align 4, !tbaa !32
  %19 = sext i32 %18 to i64
  %20 = getelementptr inbounds [24 x ptr], ptr @_ZN12_GLOBAL__N_112gUnicodeSetsE, i64 0, i64 %19
  store ptr null, ptr %20, align 8, !tbaa !19
  br label %21

21:                                               ; preds = %17
  %22 = load i32, ptr %1, align 4, !tbaa !32
  %23 = add nsw i32 %22, 1
  store i32 %23, ptr %1, align 4, !tbaa !32
  br label %6, !llvm.loop !35

24:                                               ; preds = %9
  call void @_ZN6icu_779UInitOnce5resetEv(ptr noundef nonnull align 4 dereferenceable(8) @_ZN12_GLOBAL__N_127gNumberParseUniSetsInitOnceE)
  ret i8 1
}