; Function Attrs: mustprogress nounwind uwtable
define internal noundef signext i8 @_ZN12_GLOBAL__N_125cleanupNumberParseUniSetsEv() #6 {
  %.b = load i1, ptr @_ZN12_GLOBAL__N_127gEmptyUnicodeSetInitializedE, align 1
  br i1 %.b, label %1, label %.preheader

.preheader:                                       ; preds = %1, %0
  br label %3

1:                                                ; preds = %0
  tail call void @_ZN6icu_7710UnicodeSetD1Ev(ptr noundef nonnull align 8 dereferenceable(200) @_ZN12_GLOBAL__N_116gEmptyUnicodeSetE) #9
  store i1 false, ptr @_ZN12_GLOBAL__N_127gEmptyUnicodeSetInitializedE, align 1
  br label %.preheader

2:                                                ; preds = %8
  store atomic i32 0, ptr @_ZN12_GLOBAL__N_127gNumberParseUniSetsInitOnceE seq_cst, align 4
  ret i8 1

3:                                                ; preds = %.preheader, %8
  %indvars.iv = phi i64 [ %indvars.iv.next, %8 ], [ 0, %.preheader ]
  %4 = getelementptr inbounds nuw [24 x ptr], ptr @_ZN12_GLOBAL__N_112gUnicodeSetsE, i64 0, i64 %indvars.iv
  %5 = load ptr, ptr %4, align 8, !tbaa !10
  %6 = icmp eq ptr %5, null
  br i1 %6, label %8, label %7

7:                                                ; preds = %3
  tail call void @_ZN6icu_7710UnicodeSetD1Ev(ptr noundef nonnull align 8 dereferenceable(200) %5) #9
  tail call void @_ZN6icu_777UMemorydlEPv(ptr noundef nonnull %5) #9
  br label %8

8:                                                ; preds = %7, %3
  store ptr null, ptr %4, align 8, !tbaa !10
  %indvars.iv.next = add nuw nsw i64 %indvars.iv, 1
  %exitcond.not = icmp eq i64 %indvars.iv.next, 24
  br i1 %exitcond.not, label %2, label %3, !llvm.loop !23
}